target datalayout = "e-m:e-p270:32:32-p271:32:32-p272:64:64-i64:64-i128:128-f80:128-n8:16:32:64-S128"
target triple = "x86_64-unknown-linux-gnu"

%class.btTriangleRaycastCallback = type { %class.btTriangleCallback, %class.btVector3, %class.btVector3, i32, float }
%class.btTriangleCallback = type { ptr }
%class.btVector3 = type { [4 x float] }

@_ZTV18btTriangleCallback = external unnamed_addr constant { [5 x ptr] }, align 8

; Function Attrs: mustprogress nounwind uwtable
define linkonce_odr dso_local void @_ZN18btTriangleCallbackC2Ev(ptr noundef nonnull align 8 dereferenceable(8) %this) unnamed_addr #1 comdat align 2 {
entry:
  %this.addr = alloca ptr, align 8
  store ptr %this, ptr %this.addr, align 8
  %this1 = load ptr, ptr %this.addr, align 8
  store ptr getelementptr inbounds ({ [5 x ptr] }, ptr @_ZTV18btTriangleCallback, i32 0, i32 0, i32 2), ptr %this1, align 8
  ret void
}

; Function Attrs: mustprogress nounwind uwtable
define dso_local void @_ZN25btTriangleRaycastCallbackC2ERK9btVector3S2_j(ptr noundef nonnull align 8 dereferenceable(48) %this, ptr noundef nonnull align 4 dereferenceable(16) %from, ptr noundef nonnull align 4 dereferenceable(16) %to, i32 noundef %flags) unnamed_addr #1 align 2 {
entry:
  %this.addr = alloca ptr, align 8
  %from.addr = alloca ptr, align 8
  %to.addr = alloca ptr, align 8
  %flags.addr = alloca i32, align 4
  store ptr %this, ptr %this.addr, align 8
  store ptr %from, ptr %from.addr, align 8
  store ptr %to, ptr %to.addr, align 8
  store i32 %flags, ptr %flags.addr, align 4
  %this1 = load ptr, ptr %this.addr, align 8
  call void @_ZN18btTriangleCallbackC2Ev(ptr noundef nonnull align 8 dereferenceable(8) %this1) #11
  store ptr getelementptr inbounds ({ [6 x ptr] }, ptr @_ZTV25btTriangleRaycastCallback, i32 0, i32 0, i32 2), ptr %this1, align 8
  %m_from = getelementptr inbounds %class.btTriangleRaycastCallback, ptr %this1, i32 0, i32 1
  %0 = load ptr, ptr %from.addr, align 8
  call void @llvm.memcpy.p0.p0.i64(ptr align 8 %m_from, ptr align 4 %0, i64 16, i1 false)
  %m_to = getelementptr inbounds %class.btTriangleRaycastCallback, ptr %this1, i32 0, i32 2
  %1 = load ptr, ptr %to.addr, align 8
  call void @llvm.memcpy.p0.p0.i64(ptr align 8 %m_to, ptr align 4 %1, i64 16, i1 false)
  %m_flags = getelementptr inbounds %class.btTriangleRaycastCallback, ptr %this1, i32 0, i32 3
  %2 = load i32, ptr %flags.addr, align 4
  store i32 %2, ptr %m_flags, align 8
  %m_hitFraction = getelementptr inbounds %class.btTriangleRaycastCallback, ptr %this1, i32 0, i32 4
  store float 1.000000e+00, ptr %m_hitFraction, align 4
  ret void
}