; Function Attrs: mustprogress nofree norecurse nosync nounwind willreturn memory(argmem: readwrite) uwtable
define dso_local void @_ZN25btTriangleRaycastCallbackC2ERK9btVector3S2_j(ptr nocapture noundef nonnull writeonly align 8 dereferenceable(48) %this, ptr nocapture noundef nonnull readonly align 4 dereferenceable(16) %from, ptr nocapture noundef nonnull readonly align 4 dereferenceable(16) %to, i32 noundef %flags) unnamed_addr #0 align 2 {
entry:
  store ptr getelementptr inbounds ({ [6 x ptr] }, ptr @_ZTV25btTriangleRaycastCallback, i64 0, i32 0, i64 2), ptr %this, align 8
  %m_from = getelementptr inbounds i8, ptr %this, i64 8
  tail call void @llvm.memcpy.p0.p0.i64(ptr noundef nonnull align 8 dereferenceable(16) %m_from, ptr noundef nonnull align 4 dereferenceable(16) %from, i64 16, i1 false)
  %m_to = getelementptr inbounds i8, ptr %this, i64 24
  tail call void @llvm.memcpy.p0.p0.i64(ptr noundef nonnull align 8 dereferenceable(16) %m_to, ptr noundef nonnull align 4 dereferenceable(16) %to, i64 16, i1 false)
  %m_flags = getelementptr inbounds i8, ptr %this, i64 40
  store i32 %flags, ptr %m_flags, align 8
  %m_hitFraction = getelementptr inbounds i8, ptr %this, i64 44
  store float 1.000000e+00, ptr %m_hitFraction, align 4
  ret void
}